; Function Attrs: mustprogress uwtable
define dso_local void @_ZN16cmCPackGenerator17SetOptionIfNotSetERKNSt7__cxx1112basic_stringIcSt11char_traitsIcESaIcEEE7cmValue(ptr noundef nonnull align 8 dereferenceable(360) %0, ptr noundef nonnull align 8 dereferenceable(32) %1, ptr %2) local_unnamed_addr #6 align 2 {
  %4 = getelementptr inbounds i8, ptr %0, i64 352
  %5 = load ptr, ptr %4, align 8
  %6 = tail call ptr @_ZNK10cmMakefile13GetDefinitionERKNSt7__cxx1112basic_stringIcSt11char_traitsIcESaIcEEE(ptr noundef nonnull align 8 dereferenceable(3520) %5, ptr noundef nonnull align 8 dereferenceable(32) %1)
  %7 = icmp eq ptr %6, null
  br i1 %7, label %_Z10cmNonempty7cmValue.exit.thread.i, label %_Z10cmNonempty7cmValue.exit.i

_Z10cmNonempty7cmValue.exit.i:                    ; preds = %3
  %8 = tail call noundef zeroext i1 @_ZNKSt7__cxx1112basic_stringIcSt11char_traitsIcESaIcEE5emptyEv(ptr noundef nonnull align 8 dereferenceable(32) %6) #23
  br i1 %8, label %_Z10cmNonempty7cmValue.exit.thread.i, label %_ZN16cmCPackGenerator19StoreOptionIfNotSetI7cmValueEEvRKNSt7__cxx1112basic_stringIcSt11char_traitsIcESaIcEEET_.exit

_Z10cmNonempty7cmValue.exit.thread.i:             ; preds = %_Z10cmNonempty7cmValue.exit.i, %3
  tail call void @_ZN16cmCPackGenerator11StoreOptionI7cmValueEEvRKNSt7__cxx1112basic_stringIcSt11char_traitsIcESaIcEEET_(ptr noundef nonnull align 8 dereferenceable(360) %0, ptr noundef nonnull align 8 dereferenceable(32) %1, ptr %2)
  br label %_ZN16cmCPackGenerator19StoreOptionIfNotSetI7cmValueEEvRKNSt7__cxx1112basic_stringIcSt11char_traitsIcESaIcEEET_.exit

_ZN16cmCPackGenerator19StoreOptionIfNotSetI7cmValueEEvRKNSt7__cxx1112basic_stringIcSt11char_traitsIcESaIcEEET_.exit: ; preds = %_Z10cmNonempty7cmValue.exit.i, %_Z10cmNonempty7cmValue.exit.thread.i
  ret void
}